; Function Attrs: mustprogress nounwind uwtable
define hidden noundef ptr @_ZN7TypeInt4makeEiii(i32 noundef %0, i32 noundef %1, i32 noundef %2) local_unnamed_addr #0 align 2 {
  %.not.i = icmp sgt i32 %0, %1
  br i1 %.not.i, label %8, label %4

4:                                                ; preds = %3
  %5 = sub i32 %1, %0
  %6 = icmp ult i32 %5, 4
  %spec.select.i = select i1 %6, i32 0, i32 %2
  %7 = icmp eq i32 %5, -1
  %spec.select16.i = select i1 %7, i32 3, i32 %spec.select.i
  br label %_ZL19normalize_int_wideniii.exit

8:                                                ; preds = %3
  %9 = add i32 %0, 1
  %10 = sub i32 %9, %1
  %11 = icmp ult i32 %10, 5
  %spec.select17.i = select i1 %11, i32 0, i32 %2
  br label %_ZL19normalize_int_wideniii.exit

_ZL19normalize_int_wideniii.exit:                 ; preds = %4, %8
  %.2.i = phi i32 [ %spec.select16.i, %4 ], [ %spec.select17.i, %8 ]
  %12 = tail call align 8 ptr @llvm.threadlocal.address.p0(ptr align 8 @_ZN6Thread12_thr_currentE)
  %13 = load ptr, ptr %12, align 8
  %14 = getelementptr inbounds i8, ptr %13, i64 1808
  %15 = load ptr, ptr %14, align 8
  %16 = getelementptr inbounds i8, ptr %15, i64 128
  %17 = load ptr, ptr %16, align 8
  %18 = getelementptr inbounds i8, ptr %17, i64 888
  store i64 32, ptr %18, align 8
  %19 = getelementptr inbounds i8, ptr %17, i64 848
  %20 = load ptr, ptr %19, align 8
  %21 = getelementptr inbounds i8, ptr %20, i64 40
  %22 = load ptr, ptr %21, align 8
  %23 = getelementptr inbounds i8, ptr %20, i64 32
  %24 = load ptr, ptr %23, align 8
  %25 = ptrtoint ptr %22 to i64
  %26 = ptrtoint ptr %24 to i64
  %27 = sub i64 %25, %26
  %.not.i.i.i = icmp ult i64 %27, 32
  br i1 %.not.i.i.i, label %30, label %28

28:                                               ; preds = %_ZL19normalize_int_wideniii.exit
  %29 = getelementptr inbounds i8, ptr %24, i64 32
  store ptr %29, ptr %23, align 8
  br label %_ZN4TypenwEm.exit

30:                                               ; preds = %_ZL19normalize_int_wideniii.exit
  %31 = tail call noundef ptr @_ZN5Arena4growEmN17AllocFailStrategy13AllocFailEnumE(ptr noundef nonnull align 8 dereferenceable(48) %20, i64 noundef 32, i32 noundef 0) #17
  br label %_ZN4TypenwEm.exit

_ZN4TypenwEm.exit:                                ; preds = %28, %30
  %.0.i.i.i = phi ptr [ %24, %28 ], [ %31, %30 ]
  %32 = icmp ne ptr %.0.i.i.i, null
  tail call void @llvm.assume(i1 %32)
  %33 = getelementptr inbounds i8, ptr %.0.i.i.i, i64 8
  store ptr null, ptr %33, align 8
  %34 = getelementptr inbounds i8, ptr %.0.i.i.i, i64 16
  store i32 3, ptr %34, align 8
  %35 = getelementptr inbounds i8, ptr %.0.i.i.i, i64 20
  %36 = trunc i32 %.2.i to i16
  store i16 %36, ptr %35, align 4
  store ptr getelementptr inbounds inrange(-16, 200) (i8, ptr @_ZTV7TypeInt, i64 16), ptr %.0.i.i.i, align 8
  %37 = getelementptr inbounds i8, ptr %.0.i.i.i, i64 24
  store i32 %0, ptr %37, align 8
  %38 = getelementptr inbounds i8, ptr %.0.i.i.i, i64 28
  store i32 %1, ptr %38, align 4
  %39 = tail call noundef ptr @_ZN4Type8hashconsEv(ptr noundef nonnull align 8 dereferenceable(20) %.0.i.i.i)
  ret ptr %39
}